target datalayout = "e-m:e-p270:32:32-p271:32:32-p272:64:64-i64:64-i128:128-f80:128-n8:16:32:64-S128"
target triple = "x86_64-pc-linux-gnu"

%struct.IndexTupleData = type { %struct.ItemPointerData, i16 }
%struct.ItemPointerData = type { %struct.BlockIdData, i16 }
%struct.BlockIdData = type { i16, i16 }

@.str = private unnamed_addr constant [55 x i8] c"failed to find requested node %d in SPGiST inner tuple\00", align 1
@.str.1 = private unnamed_addr constant [14 x i8] c"spgdoinsert.c\00", align 1
@__func__.spgUpdateNodeLink = private unnamed_addr constant [18 x i8] c"spgUpdateNodeLink\00", align 1

; Function Attrs: inlinehint nounwind uwtable
define internal void @BlockIdSet(ptr noundef %0, i32 noundef %1) #2 {
  %3 = alloca ptr, align 8
  %4 = alloca i32, align 4
  store ptr %0, ptr %3, align 8
  store i32 %1, ptr %4, align 4
  %5 = load i32, ptr %4, align 4
  %6 = lshr i32 %5, 16
  %7 = trunc i32 %6 to i16
  %8 = load ptr, ptr %3, align 8
  %9 = getelementptr inbounds nuw %struct.BlockIdData, ptr %8, i32 0, i32 0
  store i16 %7, ptr %9, align 2
  %10 = load i32, ptr %4, align 4
  %11 = and i32 %10, 65535
  %12 = trunc i32 %11 to i16
  %13 = load ptr, ptr %3, align 8
  %14 = getelementptr inbounds nuw %struct.BlockIdData, ptr %13, i32 0, i32 1
  store i16 %12, ptr %14, align 2
  ret void
}

; Function Attrs: inlinehint nounwind uwtable
define internal i64 @IndexTupleSize(ptr noundef %0) #2 {
  %2 = alloca ptr, align 8
  store ptr %0, ptr %2, align 8
  %3 = load ptr, ptr %2, align 8
  %4 = getelementptr inbounds nuw %struct.IndexTupleData, ptr %3, i32 0, i32 1
  %5 = load i16, ptr %4, align 2
  %6 = zext i16 %5 to i32
  %7 = and i32 %6, 8191
  %8 = sext i32 %7 to i64
  ret i64 %8
}

; Function Attrs: inlinehint nounwind uwtable
define internal void @ItemPointerSet(ptr noundef %0, i32 noundef %1, i16 noundef zeroext %2) #2 {
  %4 = alloca ptr, align 8
  %5 = alloca i32, align 4
  %6 = alloca i16, align 2
  store ptr %0, ptr %4, align 8
  store i32 %1, ptr %5, align 4
  store i16 %2, ptr %6, align 2
  %7 = load ptr, ptr %4, align 8
  %8 = getelementptr inbounds nuw %struct.ItemPointerData, ptr %7, i32 0, i32 0
  %9 = load i32, ptr %5, align 4
  call void @BlockIdSet(ptr noundef %8, i32 noundef %9)
  %10 = load i16, ptr %6, align 2
  %11 = load ptr, ptr %4, align 8
  %12 = getelementptr inbounds nuw %struct.ItemPointerData, ptr %11, i32 0, i32 1
  store i16 %10, ptr %12, align 2
  ret void
}

; Function Attrs: nounwind uwtable
define dso_local void @spgUpdateNodeLink(ptr noundef %0, i32 noundef %1, i32 noundef %2, i16 noundef zeroext %3) #0 {
  %5 = alloca ptr, align 8
  %6 = alloca i32, align 4
  %7 = alloca i32, align 4
  %8 = alloca i16, align 2
  %9 = alloca i32, align 4
  %10 = alloca ptr, align 8
  %11 = alloca i32, align 4
  store ptr %0, ptr %5, align 8
  store i32 %1, ptr %6, align 4
  store i32 %2, ptr %7, align 4
  store i16 %3, ptr %8, align 2
  call void @llvm.lifetime.start.p0(i64 4, ptr %9) #8
  call void @llvm.lifetime.start.p0(i64 8, ptr %10) #8
  store i32 0, ptr %9, align 4
  %12 = load ptr, ptr %5, align 8
  %13 = getelementptr inbounds nuw i8, ptr %12, i64 8
  %14 = load ptr, ptr %5, align 8
  %15 = load i32, ptr %14, align 4
  %16 = lshr i32 %15, 16
  %17 = sext i32 %16 to i64
  %18 = getelementptr inbounds i8, ptr %13, i64 %17
  store ptr %18, ptr %10, align 8
  br label %19

19:                                               ; preds = %36, %4
  %20 = load i32, ptr %9, align 4
  %21 = load ptr, ptr %5, align 8
  %22 = load i32, ptr %21, align 4
  %23 = lshr i32 %22, 3
  %24 = and i32 %23, 8191
  %25 = icmp slt i32 %20, %24
  br i1 %25, label %26, label %43

26:                                               ; preds = %19
  %27 = load i32, ptr %9, align 4
  %28 = load i32, ptr %6, align 4
  %29 = icmp eq i32 %27, %28
  br i1 %29, label %30, label %35

30:                                               ; preds = %26
  %31 = load ptr, ptr %10, align 8
  %32 = getelementptr inbounds nuw %struct.IndexTupleData, ptr %31, i32 0, i32 0
  %33 = load i32, ptr %7, align 4
  %34 = load i16, ptr %8, align 2
  call void @ItemPointerSet(ptr noundef %32, i32 noundef %33, i16 noundef zeroext %34)
  store i32 1, ptr %11, align 4
  br label %55

35:                                               ; preds = %26
  br label %36

36:                                               ; preds = %35
  %37 = load i32, ptr %9, align 4
  %38 = add i32 %37, 1
  store i32 %38, ptr %9, align 4
  %39 = load ptr, ptr %10, align 8
  %40 = load ptr, ptr %10, align 8
  %41 = call i64 @IndexTupleSize(ptr noundef %40)
  %42 = getelementptr inbounds nuw i8, ptr %39, i64 %41
  store ptr %42, ptr %10, align 8
  br label %19, !llvm.loop !4

43:                                               ; preds = %19
  br label %44

44:                                               ; preds = %43
  br i1 true, label %45, label %47

45:                                               ; preds = %44
  %46 = call zeroext i1 @errstart_cold(i32 noundef 21, ptr noundef null) #9
  br i1 %46, label %49, label %52

47:                                               ; preds = %44
  %48 = call zeroext i1 @errstart(i32 noundef 21, ptr noundef null)
  br i1 %48, label %49, label %52

49:                                               ; preds = %47, %45
  %50 = load i32, ptr %6, align 4
  %51 = call i32 (ptr, ...) @errmsg_internal(ptr noundef @.str, i32 noundef %50)
  call void @errfinish(ptr noundef @.str.1, i32 noundef 68, ptr noundef @__func__.spgUpdateNodeLink)
  br label %52

52:                                               ; preds = %49, %47, %45
  unreachable

53:                                               ; No predecessors!
  br label %54

54:                                               ; preds = %53
  store i32 0, ptr %11, align 4
  br label %55

55:                                               ; preds = %54, %30
  call void @llvm.lifetime.end.p0(i64 8, ptr %10) #8
  call void @llvm.lifetime.end.p0(i64 4, ptr %9) #8
  %56 = load i32, ptr %11, align 4
  switch i32 %56, label %58 [
    i32 0, label %57
    i32 1, label %57
  ]

57:                                               ; preds = %55, %55
  ret void

58:                                               ; preds = %55
  unreachable
}