; Function Attrs: nounwind uwtable
define dso_local void @spgUpdateNodeLink(ptr noundef captures(none) %0, i32 noundef %1, i32 noundef %2, i16 noundef zeroext %3) local_unnamed_addr #0 {
  %5 = load i32, ptr %0, align 4
  %6 = lshr i32 %5, 3
  %7 = and i32 %6, 8191
  %.not = icmp eq i32 %7, 0
  br i1 %.not, label %._crit_edge, label %.lr.ph.preheader

.lr.ph.preheader:                                 ; preds = %4
  %8 = getelementptr inbounds nuw i8, ptr %0, i64 8
  %9 = lshr i32 %5, 16
  %10 = zext nneg i32 %9 to i64
  %11 = getelementptr inbounds nuw i8, ptr %8, i64 %10
  br label %.lr.ph

.lr.ph:                                           ; preds = %.lr.ph.preheader, %19
  %.015 = phi i32 [ %20, %19 ], [ 0, %.lr.ph.preheader ]
  %.01214 = phi ptr [ %24, %19 ], [ %11, %.lr.ph.preheader ]
  %12 = icmp eq i32 %.015, %1
  br i1 %12, label %13, label %19

13:                                               ; preds = %.lr.ph
  %14 = lshr i32 %2, 16
  %15 = trunc nuw i32 %14 to i16
  store i16 %15, ptr %.01214, align 2
  %16 = trunc i32 %2 to i16
  %17 = getelementptr inbounds nuw i8, ptr %.01214, i64 2
  store i16 %16, ptr %17, align 2
  %18 = getelementptr inbounds nuw i8, ptr %.01214, i64 4
  store i16 %3, ptr %18, align 2
  ret void

19:                                               ; preds = %.lr.ph
  %20 = add nuw nsw i32 %.015, 1
  %21 = getelementptr i8, ptr %.01214, i64 6
  %.012.val = load i16, ptr %21, align 2
  %22 = and i16 %.012.val, 8191
  %23 = zext nneg i16 %22 to i64
  %24 = getelementptr inbounds nuw i8, ptr %.01214, i64 %23
  %exitcond.not = icmp eq i32 %20, %7
  br i1 %exitcond.not, label %._crit_edge, label %.lr.ph, !llvm.loop !4

._crit_edge:                                      ; preds = %19, %4
  %25 = tail call zeroext i1 @errstart_cold(i32 noundef 21, ptr noundef null) #9
  tail call void @llvm.assume(i1 %25)
  %26 = tail call i32 (ptr, ...) @errmsg_internal(ptr noundef nonnull @.str, i32 noundef %1) #10
  tail call void @errfinish(ptr noundef nonnull @.str.1, i32 noundef 68, ptr noundef nonnull @__func__.spgUpdateNodeLink) #10
  unreachable
}